; Function Attrs: mustprogress nofree norecurse nosync nounwind willreturn memory(none) uwtable
define noundef zeroext i1 @_ZN3url21IsAuthorityTerminatorEt(i16 noundef zeroext %0) local_unnamed_addr #7 {
  %2 = icmp eq i16 %0, 92
  %3 = and i16 %0, -17
  %4 = icmp eq i16 %3, 47
  %or.cond = or i1 %2, %4
  %5 = icmp eq i16 %0, 35
  %spec.select = or i1 %5, %or.cond
  ret i1 %spec.select
}